target datalayout = "e-m:e-p270:32:32-p271:32:32-p272:64:64-i64:64-i128:128-f80:128-n8:16:32:64-S128"
target triple = "x86_64-pc-linux-gnu"

%struct.ident_t = type { i32, i32, i32, i32, ptr }
%"class.std::vector" = type { %"struct.std::_Vector_base" }
%"struct.std::_Vector_base" = type { %"struct.std::_Vector_base<long, std::allocator<long>>::_Vector_impl" }
%"struct.std::_Vector_base<long, std::allocator<long>>::_Vector_impl" = type { %"struct.std::_Vector_base<long, std::allocator<long>>::_Vector_impl_data" }
%"struct.std::_Vector_base<long, std::allocator<long>>::_Vector_impl_data" = type { ptr, ptr, ptr }
%"struct.faiss::Index" = type <{ ptr, i32, [4 x i8], i64, i8, i8, [2 x i8], i32, float, [4 x i8] }>
%"struct.faiss::IndexIVF" = type <{ %"struct.faiss::Index.base", [4 x i8], %"struct.faiss::IndexIVFInterface", ptr, i8, [7 x i8], i64, i32, i32, %"struct.faiss::DirectMap", i8, [7 x i8] }>
%"struct.faiss::Index.base" = type <{ ptr, i32, [4 x i8], i64, i8, i8, [2 x i8], i32, float }>
%"struct.faiss::IndexIVFInterface" = type { ptr, %"struct.faiss::Level1Quantizer", i64, i64 }
%"struct.faiss::Level1Quantizer" = type { ptr, i64, i8, i8, [6 x i8], %"struct.faiss::ClusteringParameters", ptr }
%"struct.faiss::ClusteringParameters" = type <{ i32, i32, i8, i8, i8, i8, i8, [3 x i8], i32, i32, i32, [4 x i8], i64, i8, i8, [6 x i8] }>
%"struct.faiss::DirectMap" = type { i32, %"class.std::vector", %"class.std::unordered_map" }
%"class.std::unordered_map" = type { %"class.std::_Hashtable" }
%"class.std::_Hashtable" = type { ptr, i64, %"struct.std::__detail::_Hash_node_base", i64, %"struct.std::__detail::_Prime_rehash_policy", ptr }
%"struct.std::__detail::_Hash_node_base" = type { ptr }
%"struct.std::__detail::_Prime_rehash_policy" = type { float, i64 }
%"class.std::unique_ptr.38" = type { %"struct.std::__uniq_ptr_data.39" }
%"struct.std::__uniq_ptr_data.39" = type { %"class.std::__uniq_ptr_impl.40" }
%"class.std::__uniq_ptr_impl.40" = type { %"class.std::tuple.41" }
%"class.std::tuple.41" = type { %"struct.std::_Tuple_impl.42" }
%"struct.std::_Tuple_impl.42" = type { %"struct.std::_Head_base.45" }
%"struct.std::_Head_base.45" = type { ptr }

@.gomp_critical_user_.reduction.var = common global [8 x i32] zeroinitializer, align 8
@1 = private unnamed_addr constant %struct.ident_t { i32 0, i32 18, i32 0, i32 22, ptr @0 }, align 8

; Function Attrs: mustprogress nounwind uwtable
define linkonce_odr noundef nonnull align 8 dereferenceable(8) ptr @_ZNSt10_Head_baseILm0EPhLb0EE7_M_headERKS1_(ptr noundef nonnull align 8 dereferenceable(8) %0) #1 comdat align 2 {
  %2 = alloca ptr, align 8
  store ptr %0, ptr %2, align 8, !tbaa !315
  %3 = load ptr, ptr %2, align 8, !tbaa !315
  %4 = getelementptr inbounds nuw %"struct.std::_Head_base.45", ptr %3, i32 0, i32 0
  ret ptr %4
}

; Function Attrs: mustprogress nounwind uwtable
define linkonce_odr noundef nonnull align 8 dereferenceable(8) ptr @_ZNSt11_Tuple_implILm0EJPhSt14default_deleteIA_hEEE7_M_headERKS4_(ptr noundef nonnull align 8 dereferenceable(8) %0) #1 comdat align 2 {
  %2 = alloca ptr, align 8
  store ptr %0, ptr %2, align 8, !tbaa !311
  %3 = load ptr, ptr %2, align 8, !tbaa !311
  %4 = call noundef nonnull align 8 dereferenceable(8) ptr @_ZNSt10_Head_baseILm0EPhLb0EE7_M_headERKS1_(ptr noundef nonnull align 8 dereferenceable(8) %3) #20
  ret ptr %4
}

; Function Attrs: mustprogress nounwind uwtable
define linkonce_odr noundef nonnull align 8 dereferenceable(8) ptr @_ZSt12__get_helperILm0EPhJSt14default_deleteIA_hEEERKT0_RKSt11_Tuple_implIXT_EJS4_DpT1_EE(ptr noundef nonnull align 8 dereferenceable(8) %0) #1 comdat {
  %2 = alloca ptr, align 8
  store ptr %0, ptr %2, align 8, !tbaa !311
  %3 = load ptr, ptr %2, align 8, !tbaa !311
  %4 = call noundef nonnull align 8 dereferenceable(8) ptr @_ZNSt11_Tuple_implILm0EJPhSt14default_deleteIA_hEEE7_M_headERKS4_(ptr noundef nonnull align 8 dereferenceable(8) %3) #20
  ret ptr %4
}

; Function Attrs: mustprogress nounwind uwtable
define linkonce_odr noundef nonnull align 8 dereferenceable(8) ptr @_ZSt3getILm0EJPhSt14default_deleteIA_hEEERKNSt13tuple_elementIXT_ESt5tupleIJDpT0_EEE4typeERKS8_(ptr noundef nonnull align 8 dereferenceable(8) %0) #1 comdat {
  %2 = alloca ptr, align 8
  store ptr %0, ptr %2, align 8, !tbaa !309
  %3 = load ptr, ptr %2, align 8, !tbaa !309
  %4 = call noundef nonnull align 8 dereferenceable(8) ptr @_ZSt12__get_helperILm0EPhJSt14default_deleteIA_hEEERKT0_RKSt11_Tuple_implIXT_EJS4_DpT1_EE(ptr noundef nonnull align 8 dereferenceable(8) %3) #20
  ret ptr %4
}

; Function Attrs: mustprogress nounwind uwtable
define linkonce_odr noundef ptr @_ZNKSt15__uniq_ptr_implIhSt14default_deleteIA_hEE6_M_ptrEv(ptr noundef nonnull align 8 dereferenceable(8) %0) #1 comdat align 2 {
  %2 = alloca ptr, align 8
  store ptr %0, ptr %2, align 8, !tbaa !307
  %3 = load ptr, ptr %2, align 8
  %4 = getelementptr inbounds nuw %"class.std::__uniq_ptr_impl.40", ptr %3, i32 0, i32 0
  %5 = call noundef nonnull align 8 dereferenceable(8) ptr @_ZSt3getILm0EJPhSt14default_deleteIA_hEEERKNSt13tuple_elementIXT_ESt5tupleIJDpT0_EEE4typeERKS8_(ptr noundef nonnull align 8 dereferenceable(8) %4) #20
  %6 = load ptr, ptr %5, align 8, !tbaa !11
  ret ptr %6
}

; Function Attrs: mustprogress nounwind uwtable
define linkonce_odr noundef ptr @_ZNKSt10unique_ptrIA_hSt14default_deleteIS0_EE3getEv(ptr noundef nonnull align 8 dereferenceable(8) %0) #1 comdat align 2 {
  %2 = alloca ptr, align 8
  store ptr %0, ptr %2, align 8, !tbaa !294
  %3 = load ptr, ptr %2, align 8
  %4 = getelementptr inbounds nuw %"class.std::unique_ptr.38", ptr %3, i32 0, i32 0
  %5 = call noundef ptr @_ZNKSt15__uniq_ptr_implIhSt14default_deleteIA_hEE6_M_ptrEv(ptr noundef nonnull align 8 dereferenceable(8) %4) #20
  ret ptr %5
}

; Function Attrs: alwaysinline norecurse nounwind uwtable
define internal void @_ZN5faiss8IndexIVF8add_coreElPKfPKlS4_Pv.omp_outlined(ptr noalias noundef %0, ptr noalias noundef %1, ptr noundef nonnull align 8 dereferenceable(8) %2, ptr noundef nonnull align 8 dereferenceable(8) %3, ptr noundef nonnull align 8 dereferenceable(8) %4, ptr noundef %5, ptr noundef nonnull align 8 dereferenceable(8) %6, ptr noundef nonnull align 8 dereferenceable(8) %7, ptr noundef nonnull align 8 dereferenceable(64) %8, ptr noundef nonnull align 8 dereferenceable(8) %9) #17 personality ptr @__gxx_personality_v0 {
  %11 = alloca ptr, align 8
  %12 = alloca ptr, align 8
  %13 = alloca ptr, align 8
  %14 = alloca ptr, align 8
  %15 = alloca ptr, align 8
  %16 = alloca ptr, align 8
  %17 = alloca ptr, align 8
  %18 = alloca ptr, align 8
  %19 = alloca ptr, align 8
  %20 = alloca ptr, align 8
  %21 = alloca i64, align 8
  %22 = alloca i32, align 4
  %23 = alloca i32, align 4
  %24 = alloca i64, align 8
  %25 = alloca i64, align 8
  %26 = alloca i64, align 8
  %27 = alloca i64, align 8
  %28 = alloca [1 x ptr], align 8
  store ptr %0, ptr %11, align 8, !tbaa !296
  store ptr %1, ptr %12, align 8, !tbaa !296
  store ptr %2, ptr %13, align 8, !tbaa !13
  store ptr %3, ptr %14, align 8, !tbaa !274
  store ptr %4, ptr %15, align 8, !tbaa !274
  store ptr %5, ptr %16, align 8, !tbaa !45
  store ptr %6, ptr %17, align 8, !tbaa !294
  store ptr %7, ptr %18, align 8, !tbaa !109
  store ptr %8, ptr %19, align 8, !tbaa !298
  store ptr %9, ptr %20, align 8, !tbaa !13
  %29 = load ptr, ptr %13, align 8, !tbaa !13
  %30 = load ptr, ptr %14, align 8, !tbaa !274
  %31 = load ptr, ptr %15, align 8, !tbaa !274
  %32 = load ptr, ptr %16, align 8, !tbaa !45
  %33 = load ptr, ptr %17, align 8, !tbaa !294
  %34 = load ptr, ptr %18, align 8, !tbaa !109
  %35 = load ptr, ptr %19, align 8, !tbaa !298
  %36 = load ptr, ptr %20, align 8, !tbaa !13
  call void @llvm.lifetime.start.p0(i64 8, ptr %21) #20
  store i64 0, ptr %21, align 8, !tbaa !9
  call void @llvm.lifetime.start.p0(i64 4, ptr %22) #20
  %37 = invoke i32 @omp_get_num_threads()
          to label %38 unwind label %125

38:                                               ; preds = %10
  store i32 %37, ptr %22, align 4, !tbaa !78
  call void @llvm.lifetime.start.p0(i64 4, ptr %23) #20
  %39 = invoke i32 @omp_get_thread_num()
          to label %40 unwind label %125

40:                                               ; preds = %38
  store i32 %39, ptr %23, align 4, !tbaa !78
  call void @llvm.lifetime.start.p0(i64 8, ptr %24) #20
  store i64 0, ptr %24, align 8, !tbaa !9
  br label %41

41:                                               ; preds = %109, %40
  %42 = load i64, ptr %24, align 8, !tbaa !9
  %43 = load i64, ptr %29, align 8, !tbaa !9
  %44 = icmp ult i64 %42, %43
  br i1 %44, label %46, label %45

45:                                               ; preds = %41
  call void @llvm.lifetime.end.p0(i64 8, ptr %24) #20
  br label %112

46:                                               ; preds = %41
  call void @llvm.lifetime.start.p0(i64 8, ptr %25) #20
  %47 = load ptr, ptr %30, align 8, !tbaa !13
  %48 = load i64, ptr %24, align 8, !tbaa !9
  %49 = getelementptr inbounds nuw i64, ptr %47, i64 %48
  %50 = load i64, ptr %49, align 8, !tbaa !9
  store i64 %50, ptr %25, align 8, !tbaa !9
  %51 = load i64, ptr %25, align 8, !tbaa !9
  %52 = icmp sge i64 %51, 0
  br i1 %52, label %53, label %98

53:                                               ; preds = %46
  %54 = load i64, ptr %25, align 8, !tbaa !9
  %55 = load i32, ptr %22, align 4, !tbaa !78
  %56 = sext i32 %55 to i64
  %57 = srem i64 %54, %56
  %58 = load i32, ptr %23, align 4, !tbaa !78
  %59 = sext i32 %58 to i64
  %60 = icmp eq i64 %57, %59
  br i1 %60, label %61, label %98

61:                                               ; preds = %53
  call void @llvm.lifetime.start.p0(i64 8, ptr %26) #20
  %62 = load ptr, ptr %31, align 8, !tbaa !13
  %63 = icmp ne ptr %62, null
  br i1 %63, label %64, label %69

64:                                               ; preds = %61
  %65 = load ptr, ptr %31, align 8, !tbaa !13
  %66 = load i64, ptr %24, align 8, !tbaa !9
  %67 = getelementptr inbounds nuw i64, ptr %65, i64 %66
  %68 = load i64, ptr %67, align 8, !tbaa !9
  br label %74

69:                                               ; preds = %61
  %70 = getelementptr inbounds nuw %"struct.faiss::Index", ptr %32, i32 0, i32 3
  %71 = load i64, ptr %70, align 8, !tbaa !100
  %72 = load i64, ptr %24, align 8, !tbaa !9
  %73 = add i64 %71, %72
  br label %74

74:                                               ; preds = %69, %64
  %75 = phi i64 [ %68, %64 ], [ %73, %69 ]
  store i64 %75, ptr %26, align 8, !tbaa !9
  call void @llvm.lifetime.start.p0(i64 8, ptr %27) #20
  %76 = getelementptr inbounds nuw %"struct.faiss::IndexIVF", ptr %32, i32 0, i32 3
  %77 = load ptr, ptr %76, align 8, !tbaa !98
  %78 = load i64, ptr %25, align 8, !tbaa !9
  %79 = load i64, ptr %26, align 8, !tbaa !9
  %80 = call noundef ptr @_ZNKSt10unique_ptrIA_hSt14default_deleteIS0_EE3getEv(ptr noundef nonnull align 8 dereferenceable(8) %33) #20
  %81 = load i64, ptr %24, align 8, !tbaa !9
  %82 = getelementptr inbounds nuw %"struct.faiss::IndexIVF", ptr %32, i32 0, i32 6
  %83 = load i64, ptr %82, align 8, !tbaa !105
  %84 = mul i64 %81, %83
  %85 = getelementptr inbounds nuw i8, ptr %80, i64 %84
  %86 = load ptr, ptr %34, align 8, !tbaa !109
  %87 = load ptr, ptr %77, align 8, !tbaa !23
  %88 = getelementptr inbounds ptr, ptr %87, i64 12
  %89 = load ptr, ptr %88, align 8
  %90 = invoke noundef i64 %89(ptr noundef nonnull align 8 dereferenceable(25) %77, i64 noundef %78, i64 noundef %79, ptr noundef %85, ptr noundef %86)
          to label %91 unwind label %125

91:                                               ; preds = %74
  store i64 %90, ptr %27, align 8, !tbaa !9
  %92 = load i64, ptr %24, align 8, !tbaa !9
  %93 = load i64, ptr %25, align 8, !tbaa !9
  %94 = load i64, ptr %27, align 8, !tbaa !9
  invoke void @_ZN5faiss12DirectMapAdd3addEmlm(ptr noundef nonnull align 8 dereferenceable(64) %35, i64 noundef %92, i64 noundef %93, i64 noundef %94)
          to label %95 unwind label %125

95:                                               ; preds = %91
  %96 = load i64, ptr %21, align 8, !tbaa !9
  %97 = add i64 %96, 1
  store i64 %97, ptr %21, align 8, !tbaa !9
  call void @llvm.lifetime.end.p0(i64 8, ptr %27) #20
  call void @llvm.lifetime.end.p0(i64 8, ptr %26) #20
  br label %108

98:                                               ; preds = %53, %46
  %99 = load i32, ptr %23, align 4, !tbaa !78
  %100 = icmp eq i32 %99, 0
  br i1 %100, label %101, label %107

101:                                              ; preds = %98
  %102 = load i64, ptr %25, align 8, !tbaa !9
  %103 = icmp eq i64 %102, -1
  br i1 %103, label %104, label %107

104:                                              ; preds = %101
  %105 = load i64, ptr %24, align 8, !tbaa !9
  invoke void @_ZN5faiss12DirectMapAdd3addEmlm(ptr noundef nonnull align 8 dereferenceable(64) %35, i64 noundef %105, i64 noundef -1, i64 noundef 0)
          to label %106 unwind label %125

106:                                              ; preds = %104
  br label %107

107:                                              ; preds = %106, %101, %98
  br label %108

108:                                              ; preds = %107, %95
  call void @llvm.lifetime.end.p0(i64 8, ptr %25) #20
  br label %109

109:                                              ; preds = %108
  %110 = load i64, ptr %24, align 8, !tbaa !9
  %111 = add i64 %110, 1
  store i64 %111, ptr %24, align 8, !tbaa !9
  br label %41, !llvm.loop !300

112:                                              ; preds = %45
  call void @llvm.lifetime.end.p0(i64 4, ptr %23) #20
  call void @llvm.lifetime.end.p0(i64 4, ptr %22) #20
  %113 = getelementptr inbounds [1 x ptr], ptr %28, i64 0, i64 0
  store ptr %21, ptr %113, align 8
  %114 = load ptr, ptr %11, align 8
  %115 = load i32, ptr %114, align 4, !tbaa !78
  %116 = call i32 @__kmpc_reduce_nowait(ptr @1, i32 %115, i32 1, i64 8, ptr %28, ptr @_ZN5faiss8IndexIVF8add_coreElPKfPKlS4_Pv.omp_outlined.omp.reduction.reduction_func, ptr @.gomp_critical_user_.reduction.var)
  switch i32 %116, label %124 [
    i32 1, label %117
    i32 2, label %121
  ]

117:                                              ; preds = %112
  %118 = load i64, ptr %36, align 8, !tbaa !9
  %119 = load i64, ptr %21, align 8, !tbaa !9
  %120 = add i64 %118, %119
  store i64 %120, ptr %36, align 8, !tbaa !9
  call void @__kmpc_end_reduce_nowait(ptr @1, i32 %115, ptr @.gomp_critical_user_.reduction.var)
  br label %124

121:                                              ; preds = %112
  %122 = load i64, ptr %21, align 8, !tbaa !9
  %123 = atomicrmw add ptr %36, i64 %122 monotonic, align 8
  br label %124

124:                                              ; preds = %121, %117, %112
  call void @llvm.lifetime.end.p0(i64 8, ptr %21) #20
  ret void

125:                                              ; preds = %104, %91, %74, %38, %10
  %126 = landingpad { ptr, i32 }
          catch ptr null
  %127 = extractvalue { ptr, i32 } %126, 0
  call void @__clang_call_terminate(ptr %127) #26
  unreachable
}