; Function Attrs: alwaysinline norecurse nounwind uwtable
define internal void @_ZN5faiss8IndexIVF8add_coreElPKfPKlS4_Pv.omp_outlined(ptr noalias noundef readonly captures(none) %0, ptr noalias readnone captures(none) %1, ptr noundef nonnull readonly align 8 captures(none) dereferenceable(8) %2, ptr noundef nonnull readonly align 8 captures(none) dereferenceable(8) %3, ptr noundef nonnull readonly align 8 captures(none) dereferenceable(8) %4, ptr noundef readonly captures(none) %5, ptr noundef nonnull readonly align 8 captures(none) dereferenceable(8) %6, ptr noundef nonnull readonly align 8 captures(none) dereferenceable(8) %7, ptr noundef nonnull align 8 dereferenceable(64) %8, ptr noundef nonnull align 8 captures(none) dereferenceable(8) %9) #24 personality ptr @__gxx_personality_v0 {
  %11 = alloca i64, align 8
  %12 = alloca [1 x ptr], align 8
  call void @llvm.lifetime.start.p0(i64 8, ptr nonnull %11) #27
  store i64 0, ptr %11, align 8, !tbaa !19
  %13 = tail call i32 @omp_get_num_threads()
  %14 = tail call i32 @omp_get_thread_num()
  %15 = load i64, ptr %2, align 8, !tbaa !19
  %.not31 = icmp eq i64 %15, 0
  br i1 %.not31, label %._crit_edge, label %.lr.ph

.lr.ph:                                           ; preds = %10
  %.fr32 = freeze i32 %14
  %16 = icmp eq i32 %.fr32, 0
  %17 = sext i32 %13 to i64
  %18 = sext i32 %.fr32 to i64
  %19 = getelementptr inbounds nuw i8, ptr %5, i64 16
  %20 = getelementptr inbounds nuw i8, ptr %5, i64 144
  %21 = getelementptr inbounds nuw i8, ptr %5, i64 160
  br i1 %16, label %.lr.ph.split, label %.lr.ph.split.us

.lr.ph.split.us:                                  ; preds = %.lr.ph, %.thread.us
  %22 = phi i64 [ %54, %.thread.us ], [ %15, %.lr.ph ]
  %23 = phi i64 [ %55, %.thread.us ], [ 0, %.lr.ph ]
  %.030.us = phi i64 [ %56, %.thread.us ], [ 0, %.lr.ph ]
  %24 = load ptr, ptr %3, align 8, !tbaa !61
  %25 = getelementptr inbounds nuw i64, ptr %24, i64 %.030.us
  %26 = load i64, ptr %25, align 8, !tbaa !19
  %27 = icmp sgt i64 %26, -1
  br i1 %27, label %28, label %.thread.us

28:                                               ; preds = %.lr.ph.split.us
  %29 = srem i64 %26, %17
  %30 = icmp eq i64 %29, %18
  br i1 %30, label %31, label %.thread.us

31:                                               ; preds = %28
  %32 = load ptr, ptr %4, align 8, !tbaa !61
  %.not.us = icmp eq ptr %32, null
  br i1 %.not.us, label %36, label %33

33:                                               ; preds = %31
  %34 = getelementptr inbounds nuw i64, ptr %32, i64 %.030.us
  %35 = load i64, ptr %34, align 8, !tbaa !19
  br label %39

36:                                               ; preds = %31
  %37 = load i64, ptr %19, align 8, !tbaa !98
  %38 = add i64 %37, %.030.us
  br label %39

39:                                               ; preds = %36, %33
  %40 = phi i64 [ %35, %33 ], [ %38, %36 ]
  %41 = load ptr, ptr %20, align 8, !tbaa !97
  %42 = load ptr, ptr %6, align 8, !tbaa !113
  %43 = load i64, ptr %21, align 8, !tbaa !103
  %44 = mul i64 %43, %.030.us
  %45 = getelementptr inbounds nuw i8, ptr %42, i64 %44
  %46 = load ptr, ptr %7, align 8, !tbaa !111
  %47 = load ptr, ptr %41, align 8, !tbaa !14
  %48 = getelementptr inbounds nuw i8, ptr %47, i64 96
  %49 = load ptr, ptr %48, align 8
  %50 = invoke noundef i64 %49(ptr noundef nonnull align 8 dereferenceable(25) %41, i64 noundef %26, i64 noundef %40, ptr noundef %45, ptr noundef %46)
          to label %51 unwind label %.split.us

51:                                               ; preds = %39
  invoke void @_ZN5faiss12DirectMapAdd3addEmlm(ptr noundef nonnull align 8 dereferenceable(64) %8, i64 noundef %.030.us, i64 noundef %26, i64 noundef %50)
          to label %52 unwind label %.split.us

52:                                               ; preds = %51
  %53 = add i64 %23, 1
  store i64 %53, ptr %11, align 8, !tbaa !19
  %.pre = load i64, ptr %2, align 8, !tbaa !19
  br label %.thread.us

.thread.us:                                       ; preds = %.lr.ph.split.us, %52, %28
  %54 = phi i64 [ %22, %.lr.ph.split.us ], [ %.pre, %52 ], [ %22, %28 ]
  %55 = phi i64 [ %23, %.lr.ph.split.us ], [ %53, %52 ], [ %23, %28 ]
  %56 = add nuw i64 %.030.us, 1
  %57 = icmp ult i64 %56, %54
  br i1 %57, label %.lr.ph.split.us, label %._crit_edge, !llvm.loop !171

.split.us:                                        ; preds = %51, %39
  %58 = landingpad { ptr, i32 }
          catch ptr null
  br label %108

._crit_edge:                                      ; preds = %.thread.us, %.thread, %10
  store ptr %11, ptr %12, align 8
  %59 = load i32, ptr %0, align 4, !tbaa !78
  %60 = call i32 @__kmpc_reduce_nowait(ptr nonnull @1, i32 %59, i32 1, i64 8, ptr nonnull %12, ptr nonnull @_ZN5faiss8IndexIVF8add_coreElPKfPKlS4_Pv.omp_outlined.omp.reduction.reduction_func, ptr nonnull @.gomp_critical_user_.reduction.var)
  switch i32 %60, label %106 [
    i32 1, label %99
    i32 2, label %103
  ]

.lr.ph.split:                                     ; preds = %.lr.ph, %.thread
  %61 = phi i64 [ %95, %.thread ], [ 0, %.lr.ph ]
  %.030 = phi i64 [ %96, %.thread ], [ 0, %.lr.ph ]
  %62 = load ptr, ptr %3, align 8, !tbaa !61
  %63 = getelementptr inbounds nuw i64, ptr %62, i64 %.030
  %64 = load i64, ptr %63, align 8, !tbaa !19
  %65 = icmp sgt i64 %64, -1
  br i1 %65, label %66, label %92

66:                                               ; preds = %.lr.ph.split
  %67 = srem i64 %64, %17
  %68 = icmp eq i64 %67, %18
  br i1 %68, label %69, label %.thread

69:                                               ; preds = %66
  %70 = load ptr, ptr %4, align 8, !tbaa !61
  %.not = icmp eq ptr %70, null
  br i1 %.not, label %74, label %71

71:                                               ; preds = %69
  %72 = getelementptr inbounds nuw i64, ptr %70, i64 %.030
  %73 = load i64, ptr %72, align 8, !tbaa !19
  br label %77

74:                                               ; preds = %69
  %75 = load i64, ptr %19, align 8, !tbaa !98
  %76 = add i64 %75, %.030
  br label %77

77:                                               ; preds = %74, %71
  %78 = phi i64 [ %73, %71 ], [ %76, %74 ]
  %79 = load ptr, ptr %20, align 8, !tbaa !97
  %80 = load ptr, ptr %6, align 8, !tbaa !113
  %81 = load i64, ptr %21, align 8, !tbaa !103
  %82 = mul i64 %81, %.030
  %83 = getelementptr inbounds nuw i8, ptr %80, i64 %82
  %84 = load ptr, ptr %7, align 8, !tbaa !111
  %85 = load ptr, ptr %79, align 8, !tbaa !14
  %86 = getelementptr inbounds nuw i8, ptr %85, i64 96
  %87 = load ptr, ptr %86, align 8
  %88 = invoke noundef i64 %87(ptr noundef nonnull align 8 dereferenceable(25) %79, i64 noundef %64, i64 noundef %78, ptr noundef %83, ptr noundef %84)
          to label %89 unwind label %.split

89:                                               ; preds = %77
  invoke void @_ZN5faiss12DirectMapAdd3addEmlm(ptr noundef nonnull align 8 dereferenceable(64) %8, i64 noundef %.030, i64 noundef %64, i64 noundef %88)
          to label %90 unwind label %.split

90:                                               ; preds = %89
  %91 = add i64 %61, 1
  store i64 %91, ptr %11, align 8, !tbaa !19
  br label %.thread

92:                                               ; preds = %.lr.ph.split
  %93 = icmp eq i64 %64, -1
  br i1 %93, label %94, label %.thread

94:                                               ; preds = %92
  invoke void @_ZN5faiss12DirectMapAdd3addEmlm(ptr noundef nonnull align 8 dereferenceable(64) %8, i64 noundef %.030, i64 noundef -1, i64 noundef 0)
          to label %.thread unwind label %.split

.thread:                                          ; preds = %66, %92, %94, %90
  %95 = phi i64 [ %61, %66 ], [ %61, %92 ], [ %61, %94 ], [ %91, %90 ]
  %96 = add nuw i64 %.030, 1
  %97 = load i64, ptr %2, align 8, !tbaa !19
  %98 = icmp ult i64 %96, %97
  br i1 %98, label %.lr.ph.split, label %._crit_edge, !llvm.loop !171

99:                                               ; preds = %._crit_edge
  %100 = load i64, ptr %9, align 8, !tbaa !19
  %101 = load i64, ptr %11, align 8, !tbaa !19
  %102 = add i64 %101, %100
  store i64 %102, ptr %9, align 8, !tbaa !19
  call void @__kmpc_end_reduce_nowait(ptr nonnull @1, i32 %59, ptr nonnull @.gomp_critical_user_.reduction.var)
  br label %106

103:                                              ; preds = %._crit_edge
  %104 = load i64, ptr %11, align 8, !tbaa !19
  %105 = atomicrmw add ptr %9, i64 %104 monotonic, align 8
  br label %106

106:                                              ; preds = %103, %99, %._crit_edge
  call void @llvm.lifetime.end.p0(i64 8, ptr nonnull %11) #27
  ret void

.split:                                           ; preds = %94, %89, %77
  %107 = landingpad { ptr, i32 }
          catch ptr null
  br label %108

108:                                              ; preds = %.split.us, %.split
  %.us-phi = phi { ptr, i32 } [ %107, %.split ], [ %58, %.split.us ]
  %109 = extractvalue { ptr, i32 } %.us-phi, 0
  tail call void @__clang_call_terminate(ptr %109) #41
  unreachable
}